Certificate:
    Data:
        Version: 3 (0x2)
        Serial Number:
            14:7a:a5:09:c0:84:44:62:31:e4:35:42:18:6e:5b:bd
    Signature Algorithm: sha256WithRSAEncryption
        Issuer: CN=djgl
        Validity
            Not Before: Oct 25 09:52:31 2021 GMT
            Not After : Jan 28 09:52:31 2024 GMT
        Subject: CN=server
        Subject Public Key Info:
            Public Key Algorithm: rsaEncryption
                Public-Key: (2048 bit)
                Modulus:
                    00:ef:57:5f:85:7f:08:d8:2a:c4:9b:d6:be:7b:65:
                    e6:f9:06:6c:f4:42:c2:e7:5e:6f:b2:b5:3c:d8:7f:
                    d7:64:e9:bb:42:92:47:f1:a6:7f:ed:70:bd:29:4c:
                    d9:2c:4d:36:61:68:6d:78:5e:3c:24:e1:ad:63:57:
                    c6:70:ea:bc:47:2b:df:12:79:72:38:d8:0a:8e:ad:
                    2a:c3:77:60:27:50:3a:cd:5a:c3:d0:4b:12:3a:9b:
                    23:85:14:03:b6:6d:35:a9:e4:92:a8:d9:93:26:76:
                    db:e2:10:00:bf:f4:92:1d:f6:5e:9a:d2:cc:0f:61:
                    ce:3b:19:e5:a7:a6:fb:ec:59:09:cf:3e:30:b2:49:
                    92:bb:73:6c:b5:47:04:5e:2d:3e:e5:1a:34:32:7f:
                    87:1c:cb:0b:f6:3e:6e:da:a4:7a:ad:a3:ab:99:de:
                    1e:ca:b6:f2:7b:8e:52:9d:7f:51:13:81:1e:a6:09:
                    0e:fa:59:86:ef:6f:50:ae:e8:98:da:50:79:9e:46:
                    9c:5d:f5:ee:39:d7:d2:47:5c:36:8d:7f:89:a4:c5:
                    ae:9d:43:9d:16:55:c2:da:81:63:bd:42:eb:02:56:
                    04:40:38:c8:58:16:25:9f:88:78:f9:13:fe:0c:58:
                    b0:9b:1f:34:3e:78:24:2e:84:21:26:36:60:9f:e2:
                    d3:9b
                Exponent: 65537 (0x10001)
        X509v3 extensions:
            X509v3 Basic Constraints: 
                CA:FALSE
            X509v3 Subject Key Identifier: 
                F1:86:6E:D3:CF:2D:EC:72:3F:E6:62:5F:1F:21:76:F1:43:7B:BB:0F
            X509v3 Authority Key Identifier: 
                keyid:9F:2D:F3:52:25:FB:19:DB:3D:7A:44:84:DC:2B:A5:76:EB:E0:04:46
                DirName:/CN=djgl
                serial:8A:25:A9:DE:37:F3:11:82

            X509v3 Extended Key Usage: 
                TLS Web Server Authentication
            X509v3 Key Usage: 
                Digital Signature, Key Encipherment
            X509v3 Subject Alternative Name: 
                DNS:server
    Signature Algorithm: sha256WithRSAEncryption
         cb:ff:7e:03:60:eb:56:bc:d9:63:d3:f2:0e:65:b6:05:10:b2:
         eb:d2:e7:28:c9:23:92:98:db:27:40:b7:4e:6b:91:dc:31:ee:
         e8:94:c2:b1:0e:48:5f:e6:e7:a6:4b:b9:9c:59:b2:a5:53:9b:
         cc:3f:c1:d4:8c:3c:1d:4e:b2:b9:ee:0e:26:9f:b3:8a:c1:77:
         52:02:55:3d:16:cb:a0:a4:fe:cb:22:2c:16:c8:49:9c:e2:1c:
         ca:a0:8a:00:ef:93:1b:5f:3f:d4:0a:81:cc:3f:94:51:49:2c:
         39:d5:f6:28:8b:2e:12:e6:a2:49:f7:20:19:13:63:83:1a:3e:
         79:fa:a3:49:c0:fd:78:c0:74:c1:65:57:9e:be:fa:a7:e9:49:
         7c:5a:a8:1c:fb:82:f6:e5:35:b0:1a:b9:3f:22:1c:3b:fc:3d:
         32:0d:ec:73:17:37:41:58:5c:fc:ca:02:bc:ca:a3:07:20:7a:
         17:8d:10:82:10:d6:f5:0c:b3:78:90:c9:ad:26:f4:44:ae:2d:
         8c:14:c5:86:f6:52:63:54:f2:4b:bb:0d:b2:8c:9a:00:14:42:
         c2:ea:c2:50:c5:a1:cd:e3:fa:1f:78:27:fe:51:0a:b7:75:72:
         fd:02:0e:a0:df:bd:95:d0:98:d6:98:f5:3d:8f:70:bd:2d:76:
         52:e1:97:4d
-----BEGIN CERTIFICATE-----
MIIDTjCCAjagAwIBAgIQFHqlCcCERGIx5DVCGG5bvTANBgkqhkiG9w0BAQsFADAP
MQ0wCwYDVQQDDARkamdsMB4XDTIxMTAyNTA5NTIzMVoXDTI0MDEyODA5NTIzMVow
ETEPMA0GA1UEAwwGc2VydmVyMIIBIjANBgkqhkiG9w0BAQEFAAOCAQ8AMIIBCgKC
AQEA71dfhX8I2CrEm9a+e2Xm+QZs9ELC515vsrU82H/XZOm7QpJH8aZ/7XC9KUzZ
LE02YWhteF48JOGtY1fGcOq8RyvfEnlyONgKjq0qw3dgJ1A6zVrD0EsSOpsjhRQD
tm01qeSSqNmTJnbb4hAAv/SSHfZemtLMD2HOOxnlp6b77FkJzz4wskmSu3NstUcE
Xi0+5Ro0Mn+HHMsL9j5u2qR6raOrmd4eyrbye45SnX9RE4EepgkO+lmG729QruiY
2lB5nkacXfXuOdfSR1w2jX+JpMWunUOdFlXC2oFjvULrAlYEQDjIWBYln4h4+RP+
DFiwmx80PngkLoQhJjZgn+LTmwIDAQABo4GjMIGgMAkGA1UdEwQCMAAwHQYDVR0O
BBYEFPGGbtPPLexyP+ZiXx8hdvFDe7sPMD8GA1UdIwQ4MDaAFJ8t81Il+xnbPXpE
hNwrpXbr4ARGoROkETAPMQ0wCwYDVQQDDARkamdsggkAiiWp3jfzEYIwEwYDVR0l
BAwwCgYIKwYBBQUHAwEwCwYDVR0PBAQDAgWgMBEGA1UdEQQKMAiCBnNlcnZlcjAN
BgkqhkiG9w0BAQsFAAOCAQEAy/9+A2DrVrzZY9PyDmW2BRCy69LnKMkjkpjbJ0C3
TmuR3DHu6JTCsQ5IX+bnpku5nFmypVObzD/B1Iw8HU6yue4OJp+zisF3UgJVPRbL
oKT+yyIsFshJnOIcyqCKAO+TG18/1AqBzD+UUUksOdX2KIsuEuaiSfcgGRNjgxo+
efqjScD9eMB0wWVXnr76p+lJfFqoHPuC9uU1sBq5PyIcO/w9Mg3scxc3QVhc/MoC
vMqjByB6F40QghDW9QyzeJDJrSb0RK4tjBTFhvZSY1TyS7sNsoyaABRCwurCUMWh
zeP6H3gn/lEKt3Vy/QIOoN+9ldCY1pj1PY9wvS12UuGXTQ==
-----END CERTIFICATE-----
